target datalayout = "e-m:e-p270:32:32-p271:32:32-p272:64:64-i64:64-i128:128-f80:128-n8:16:32:64-S128"
target triple = "x86_64-pc-linux-gnu"

%struct.WOLFSSL = type <{ ptr, ptr, ptr, ptr, [48 x i8], [48 x i8], ptr, ptr, ptr, ptr, ptr, ptr, ptr, ptr, ptr, ptr, ptr, ptr, ptr, i32, [4 x i8], %struct.WOLFSSL_CIPHER, ptr, %struct.Ciphers, %struct.Ciphers, [8 x i8], %struct.Buffers, ptr, ptr, %struct.WOLFSSL_ALERT_HISTORY, %struct.WOLFSSL_ALERT, i32, i32, i32, i32, i32, i32, i32, i16, [2 x i8], i32, i8, %struct.RecordLayerHeader, %struct.MsgsReceived, %struct.ProtocolVersion, %struct.ProtocolVersion, %struct.CipherSpecs, [2 x i8], %struct.Keys, %struct.Options, ptr, i8, i8, i16, [10 x i16], i8, i8, i16, i16, [38 x i8], i32, i32, [4 x i8], ptr, i8, i8, [6 x i8], ptr, ptr, i16, i8, i8, i32, i8, [3 x i8], i32, %struct.OneTimeAuth, ptr }>
%struct.WOLFSSL_CIPHER = type { i8, i8, ptr }
%struct.Ciphers = type { ptr, ptr, ptr, ptr, i8, i8 }
%struct.Buffers = type { %struct.bufferStatic, %struct.bufferStatic, %struct.WOLFSSL_BUFFER_INFO, %struct.WOLFSSL_BUFFER_INFO, %struct.WOLFSSL_BUFFER_INFO, %struct.WOLFSSL_BUFFER_INFO, i32, i32, i8, i8, i8, i8, %struct.WOLFSSL_BUFFER_INFO, %struct.WOLFSSL_BUFFER_INFO, %struct.WOLFSSL_BUFFER_INFO, %struct.WOLFSSL_BUFFER_INFO, ptr, ptr, ptr, i8, i8, i32, i32, ptr, i32, [1 x ptr] }
%struct.bufferStatic = type { [5 x i8], ptr, i32, i32, i32, i8, i8 }
%struct.WOLFSSL_BUFFER_INFO = type { ptr, i32 }
%struct.WOLFSSL_ALERT_HISTORY = type { %struct.WOLFSSL_ALERT, %struct.WOLFSSL_ALERT }
%struct.WOLFSSL_ALERT = type { i32, i32 }
%struct.RecordLayerHeader = type { i8, i8, i8, [2 x i8] }
%struct.MsgsReceived = type { i32 }
%struct.ProtocolVersion = type { i8, i8 }
%struct.CipherSpecs = type { i16, i16, i16, i16, i8, i8, i8, i8, i8, i8, i8, i8 }
%struct.Keys = type { [64 x i8], [64 x i8], [32 x i8], [32 x i8], [16 x i8], [16 x i8], [8 x i8], [12 x i8], [12 x i8], i32, i32, i32, i32, i32, i32, i8, i8, i8, i8 }
%struct.Options = type { i64, i64, i8, i8, i8, i8, i8, i8, i8, i8, i8, i8, i8, i8, i8, i8, i8, i8, i8, i8, i8, i8, i8, i16, i16, i16, i16, i16, i8 }
%struct.OneTimeAuth = type { ptr, i8 }
%struct.TLSX = type { i32, ptr, i32, i8, ptr }
%struct.SupportedCurve = type { i16, ptr }

; Function Attrs: nounwind uwtable
define ptr @TLSX_Find(ptr noundef %0, i32 noundef %1) #0 {
  %3 = alloca ptr, align 8
  %4 = alloca i32, align 4
  %5 = alloca ptr, align 8
  store ptr %0, ptr %3, align 8, !tbaa !77
  store i32 %1, ptr %4, align 4, !tbaa !12
  call void @llvm.lifetime.start.p0(i64 8, ptr %5) #8
  %6 = load ptr, ptr %3, align 8, !tbaa !77
  store ptr %6, ptr %5, align 8, !tbaa !77
  br label %7

7:                                                ; preds = %18, %2
  %8 = load ptr, ptr %5, align 8, !tbaa !77
  %9 = icmp ne ptr %8, null
  br i1 %9, label %10, label %16

10:                                               ; preds = %7
  %11 = load ptr, ptr %5, align 8, !tbaa !77
  %12 = getelementptr inbounds nuw %struct.TLSX, ptr %11, i32 0, i32 0
  %13 = load i32, ptr %12, align 8, !tbaa !78
  %14 = load i32, ptr %4, align 4, !tbaa !12
  %15 = icmp ne i32 %13, %14
  br label %16

16:                                               ; preds = %10, %7
  %17 = phi i1 [ false, %7 ], [ %15, %10 ]
  br i1 %17, label %18, label %22

18:                                               ; preds = %16
  %19 = load ptr, ptr %5, align 8, !tbaa !77
  %20 = getelementptr inbounds nuw %struct.TLSX, ptr %19, i32 0, i32 4
  %21 = load ptr, ptr %20, align 8, !tbaa !80
  store ptr %21, ptr %5, align 8, !tbaa !77
  br label %7, !llvm.loop !110

22:                                               ; preds = %16
  %23 = load ptr, ptr %5, align 8, !tbaa !77
  call void @llvm.lifetime.end.p0(i64 8, ptr %5) #8
  ret ptr %23
}

; Function Attrs: nounwind uwtable
define i32 @TLSX_SupportedCurve_CheckPriority(ptr noundef %0) #0 {
  %2 = alloca i32, align 4
  %3 = alloca ptr, align 8
  %4 = alloca i32, align 4
  %5 = alloca ptr, align 8
  %6 = alloca ptr, align 8
  %7 = alloca ptr, align 8
  %8 = alloca i16, align 2
  %9 = alloca ptr, align 8
  %10 = alloca i32, align 4
  store ptr %0, ptr %3, align 8, !tbaa !3
  call void @llvm.lifetime.start.p0(i64 4, ptr %4) #8
  call void @llvm.lifetime.start.p0(i64 8, ptr %5) #8
  call void @llvm.lifetime.start.p0(i64 8, ptr %6) #8
  store ptr null, ptr %6, align 8, !tbaa !77
  call void @llvm.lifetime.start.p0(i64 8, ptr %7) #8
  store ptr null, ptr %7, align 8, !tbaa !77
  call void @llvm.lifetime.start.p0(i64 2, ptr %8) #8
  call void @llvm.lifetime.start.p0(i64 8, ptr %9) #8
  %11 = load ptr, ptr %3, align 8, !tbaa !3
  %12 = getelementptr inbounds nuw %struct.WOLFSSL, ptr %11, i32 0, i32 77
  %13 = load ptr, ptr %12, align 8, !tbaa !107
  %14 = call ptr @TLSX_Find(ptr noundef %13, i32 noundef 10)
  store ptr %14, ptr %5, align 8, !tbaa !77
  %15 = load ptr, ptr %5, align 8, !tbaa !77
  %16 = icmp eq ptr %15, null
  br i1 %16, label %17, label %18

17:                                               ; preds = %1
  store i32 0, ptr %2, align 4
  store i32 1, ptr %10, align 4
  br label %90

18:                                               ; preds = %1
  %19 = load ptr, ptr %3, align 8, !tbaa !3
  %20 = call i32 @TLSX_PopulateSupportedGroups(ptr noundef %19, ptr noundef %6)
  store i32 %20, ptr %4, align 4, !tbaa !12
  %21 = load i32, ptr %4, align 4, !tbaa !12
  %22 = icmp ne i32 %21, 1
  br i1 %22, label %23, label %29

23:                                               ; preds = %18
  %24 = load ptr, ptr %6, align 8, !tbaa !77
  %25 = load ptr, ptr %3, align 8, !tbaa !3
  %26 = getelementptr inbounds nuw %struct.WOLFSSL, ptr %25, i32 0, i32 12
  %27 = load ptr, ptr %26, align 16, !tbaa !52
  call void @TLSX_FreeAll(ptr noundef %24, ptr noundef %27)
  %28 = load i32, ptr %4, align 4, !tbaa !12
  store i32 %28, ptr %2, align 4
  store i32 1, ptr %10, align 4
  br label %90

29:                                               ; preds = %18
  %30 = load ptr, ptr %6, align 8, !tbaa !77
  %31 = call ptr @TLSX_Find(ptr noundef %30, i32 noundef 10)
  store ptr %31, ptr %7, align 8, !tbaa !77
  %32 = load ptr, ptr %7, align 8, !tbaa !77
  %33 = icmp eq ptr %32, null
  br i1 %33, label %34, label %42

34:                                               ; preds = %29
  br label %35

35:                                               ; preds = %34
  br label %36

36:                                               ; preds = %35
  br label %37

37:                                               ; preds = %36
  %38 = load ptr, ptr %6, align 8, !tbaa !77
  %39 = load ptr, ptr %3, align 8, !tbaa !3
  %40 = getelementptr inbounds nuw %struct.WOLFSSL, ptr %39, i32 0, i32 12
  %41 = load ptr, ptr %40, align 16, !tbaa !52
  call void @TLSX_FreeAll(ptr noundef %38, ptr noundef %41)
  store i32 0, ptr %2, align 4
  store i32 1, ptr %10, align 4
  br label %90

42:                                               ; preds = %29
  %43 = load ptr, ptr %7, align 8, !tbaa !77
  %44 = getelementptr inbounds nuw %struct.TLSX, ptr %43, i32 0, i32 1
  %45 = load ptr, ptr %44, align 8, !tbaa !103
  store ptr %45, ptr %9, align 8, !tbaa !124
  %46 = load ptr, ptr %9, align 8, !tbaa !124
  %47 = getelementptr inbounds nuw %struct.SupportedCurve, ptr %46, i32 0, i32 0
  %48 = load i16, ptr %47, align 8, !tbaa !132
  store i16 %48, ptr %8, align 2, !tbaa !73
  %49 = load ptr, ptr %5, align 8, !tbaa !77
  %50 = getelementptr inbounds nuw %struct.TLSX, ptr %49, i32 0, i32 1
  %51 = load ptr, ptr %50, align 8, !tbaa !103
  store ptr %51, ptr %9, align 8, !tbaa !124
  br label %52

52:                                               ; preds = %64, %42
  %53 = load ptr, ptr %9, align 8, !tbaa !124
  %54 = icmp ne ptr %53, null
  br i1 %54, label %55, label %68

55:                                               ; preds = %52
  %56 = load ptr, ptr %9, align 8, !tbaa !124
  %57 = getelementptr inbounds nuw %struct.SupportedCurve, ptr %56, i32 0, i32 0
  %58 = load i16, ptr %57, align 8, !tbaa !132
  %59 = zext i16 %58 to i32
  %60 = load i16, ptr %8, align 2, !tbaa !73
  %61 = zext i16 %60 to i32
  %62 = icmp eq i32 %59, %61
  br i1 %62, label %63, label %64

63:                                               ; preds = %55
  br label %68

64:                                               ; preds = %55
  %65 = load ptr, ptr %9, align 8, !tbaa !124
  %66 = getelementptr inbounds nuw %struct.SupportedCurve, ptr %65, i32 0, i32 1
  %67 = load ptr, ptr %66, align 8, !tbaa !127
  store ptr %67, ptr %9, align 8, !tbaa !124
  br label %52, !llvm.loop !133

68:                                               ; preds = %63, %52
  %69 = load ptr, ptr %9, align 8, !tbaa !124
  %70 = icmp eq ptr %69, null
  br i1 %70, label %71, label %85

71:                                               ; preds = %68
  %72 = load ptr, ptr %5, align 8, !tbaa !77
  %73 = getelementptr inbounds nuw %struct.TLSX, ptr %72, i32 0, i32 3
  store i8 1, ptr %73, align 4, !tbaa !104
  %74 = load ptr, ptr %5, align 8, !tbaa !77
  %75 = getelementptr inbounds nuw %struct.TLSX, ptr %74, i32 0, i32 1
  %76 = load ptr, ptr %75, align 8, !tbaa !103
  store ptr %76, ptr %9, align 8, !tbaa !124
  %77 = load ptr, ptr %7, align 8, !tbaa !77
  %78 = getelementptr inbounds nuw %struct.TLSX, ptr %77, i32 0, i32 1
  %79 = load ptr, ptr %78, align 8, !tbaa !103
  %80 = load ptr, ptr %5, align 8, !tbaa !77
  %81 = getelementptr inbounds nuw %struct.TLSX, ptr %80, i32 0, i32 1
  store ptr %79, ptr %81, align 8, !tbaa !103
  %82 = load ptr, ptr %9, align 8, !tbaa !124
  %83 = load ptr, ptr %7, align 8, !tbaa !77
  %84 = getelementptr inbounds nuw %struct.TLSX, ptr %83, i32 0, i32 1
  store ptr %82, ptr %84, align 8, !tbaa !103
  br label %85

85:                                               ; preds = %71, %68
  %86 = load ptr, ptr %6, align 8, !tbaa !77
  %87 = load ptr, ptr %3, align 8, !tbaa !3
  %88 = getelementptr inbounds nuw %struct.WOLFSSL, ptr %87, i32 0, i32 12
  %89 = load ptr, ptr %88, align 16, !tbaa !52
  call void @TLSX_FreeAll(ptr noundef %86, ptr noundef %89)
  store i32 0, ptr %2, align 4
  store i32 1, ptr %10, align 4
  br label %90

90:                                               ; preds = %85, %37, %23, %17
  call void @llvm.lifetime.end.p0(i64 8, ptr %9) #8
  call void @llvm.lifetime.end.p0(i64 2, ptr %8) #8
  call void @llvm.lifetime.end.p0(i64 8, ptr %7) #8
  call void @llvm.lifetime.end.p0(i64 8, ptr %6) #8
  call void @llvm.lifetime.end.p0(i64 8, ptr %5) #8
  call void @llvm.lifetime.end.p0(i64 4, ptr %4) #8
  %91 = load i32, ptr %2, align 4
  ret i32 %91
}