; Function Attrs: nounwind uwtable
define range(i32 -173, 1) i32 @TLSX_SupportedCurve_CheckPriority(ptr noundef readonly captures(none) %0) local_unnamed_addr #0 {
  %2 = alloca ptr, align 8
  call void @llvm.lifetime.start.p0(i64 8, ptr nonnull %2) #17
  store ptr null, ptr %2, align 8, !tbaa !59
  %3 = getelementptr inbounds nuw i8, ptr %0, i64 1224
  %4 = load ptr, ptr %3, align 8, !tbaa !100
  %.not6.i = icmp eq ptr %4, null
  br i1 %.not6.i, label %TLSX_Find.exit.thread, label %.lr.ph.i

.lr.ph.i:                                         ; preds = %1, %6
  %.07.i = phi ptr [ %8, %6 ], [ %4, %1 ]
  %5 = load i32, ptr %.07.i, align 8, !tbaa !60
  %.not5.i = icmp eq i32 %5, 10
  br i1 %.not5.i, label %TLSX_Find.exit, label %6

6:                                                ; preds = %.lr.ph.i
  %7 = getelementptr inbounds nuw i8, ptr %.07.i, i64 24
  %8 = load ptr, ptr %7, align 8, !tbaa !63
  %.not.i = icmp eq ptr %8, null
  br i1 %.not.i, label %TLSX_Find.exit.thread, label %.lr.ph.i, !llvm.loop !101

TLSX_Find.exit:                                   ; preds = %.lr.ph.i
  %9 = call fastcc i32 @TLSX_PopulateSupportedGroups(ptr noundef %0, ptr noundef nonnull %2)
  %.not = icmp eq i32 %9, 1
  %10 = load ptr, ptr %2, align 8, !tbaa !59
  br i1 %.not, label %11, label %TLSX_Find.exit.thread.sink.split

11:                                               ; preds = %TLSX_Find.exit
  %.not6.i28 = icmp eq ptr %10, null
  br i1 %.not6.i28, label %TLSX_Find.exit.thread.sink.split, label %.lr.ph.i29

.lr.ph.i29:                                       ; preds = %11, %13
  %.07.i30 = phi ptr [ %15, %13 ], [ %10, %11 ]
  %12 = load i32, ptr %.07.i30, align 8, !tbaa !60
  %.not5.i31 = icmp eq i32 %12, 10
  br i1 %.not5.i31, label %TLSX_Find.exit34, label %13

13:                                               ; preds = %.lr.ph.i29
  %14 = getelementptr inbounds nuw i8, ptr %.07.i30, i64 24
  %15 = load ptr, ptr %14, align 8, !tbaa !63
  %.not.i32 = icmp eq ptr %15, null
  br i1 %.not.i32, label %TLSX_Find.exit.thread.sink.split, label %.lr.ph.i29, !llvm.loop !101

TLSX_Find.exit34:                                 ; preds = %.lr.ph.i29
  %16 = getelementptr inbounds nuw i8, ptr %.07.i30, i64 8
  %17 = load ptr, ptr %16, align 8, !tbaa !82
  %18 = load i16, ptr %17, align 8, !tbaa !110
  %19 = getelementptr inbounds nuw i8, ptr %.07.i, i64 8
  %.040 = load ptr, ptr %19, align 8, !tbaa !108
  %cond41 = icmp eq ptr %.040, null
  br i1 %cond41, label %._crit_edge, label %.lr.ph

20:                                               ; preds = %.lr.ph
  %21 = getelementptr inbounds nuw i8, ptr %.042, i64 8
  %.0 = load ptr, ptr %21, align 8, !tbaa !108
  %cond = icmp eq ptr %.0, null
  br i1 %cond, label %._crit_edge, label %.lr.ph, !llvm.loop !114

.lr.ph:                                           ; preds = %TLSX_Find.exit34, %20
  %.042 = phi ptr [ %.0, %20 ], [ %.040, %TLSX_Find.exit34 ]
  %22 = load i16, ptr %.042, align 8, !tbaa !110
  %23 = icmp eq i16 %22, %18
  br i1 %23, label %TLSX_Find.exit.thread.sink.split, label %20

._crit_edge:                                      ; preds = %20, %TLSX_Find.exit34
  %24 = getelementptr inbounds nuw i8, ptr %.07.i, i64 20
  store i8 1, ptr %24, align 4, !tbaa !83
  store ptr %17, ptr %19, align 8, !tbaa !82
  store ptr %.040, ptr %16, align 8, !tbaa !82
  br label %TLSX_Find.exit.thread.sink.split

TLSX_Find.exit.thread.sink.split:                 ; preds = %13, %.lr.ph, %._crit_edge, %11, %TLSX_Find.exit
  %.023.ph = phi i32 [ %9, %TLSX_Find.exit ], [ 0, %11 ], [ 0, %._crit_edge ], [ 0, %.lr.ph ], [ 0, %13 ]
  call void @TLSX_FreeAll(ptr noundef %10, ptr poison)
  br label %TLSX_Find.exit.thread

TLSX_Find.exit.thread:                            ; preds = %6, %TLSX_Find.exit.thread.sink.split, %1
  %.023 = phi i32 [ 0, %1 ], [ %.023.ph, %TLSX_Find.exit.thread.sink.split ], [ 0, %6 ]
  call void @llvm.lifetime.end.p0(i64 8, ptr nonnull %2) #17
  ret i32 %.023
}